; Function Attrs: nounwind uwtable
define <2 x float> @b2Body_GetRotation(i64 %0) local_unnamed_addr #8 {
  %.sroa.2.0.extract.shift = lshr i64 %0, 32
  %2 = trunc nuw i64 %.sroa.2.0.extract.shift to i32
  %3 = and i32 %2, 65535
  %4 = tail call ptr @b2GetWorld(i32 noundef %3) #10
  %5 = getelementptr inbounds nuw i8, ptr %4, i64 1032
  %.val.i = load ptr, ptr %5, align 8, !tbaa !10
  %6 = shl i64 %0, 32
  %sext.i = add i64 %6, -4294967296
  %7 = ashr exact i64 %sext.i, 25
  %8 = getelementptr inbounds i8, ptr %.val.i, i64 %7
  %9 = getelementptr inbounds nuw i8, ptr %4, i64 1072
  %10 = getelementptr inbounds nuw i8, ptr %8, i64 40
  %11 = load i32, ptr %10, align 8, !tbaa !19
  %.val.i6 = load ptr, ptr %9, align 8, !tbaa !24
  %12 = sext i32 %11 to i64
  %13 = getelementptr inbounds %struct.b2SolverSet, ptr %.val.i6, i64 %12
  %14 = getelementptr inbounds nuw i8, ptr %8, i64 44
  %15 = load i32, ptr %14, align 4, !tbaa !27
  %.val5.i = load ptr, ptr %13, align 8, !tbaa !14
  %16 = sext i32 %15 to i64
  %.sroa.2.0..sroa_idx.i = getelementptr inbounds %struct.b2BodySim, ptr %.val5.i, i64 %16, i32 0, i32 1
  %.sroa.2.0.copyload.i = load <2 x float>, ptr %.sroa.2.0..sroa_idx.i, align 4
  ret <2 x float> %.sroa.2.0.copyload.i
}